target datalayout = "e-m:e-p270:32:32-p271:32:32-p272:64:64-i64:64-i128:128-f80:128-n8:16:32:64-S128"
target triple = "x86_64-pc-linux-gnu"

%struct.check_vector = type { i64, i64, ptr, %union.pthread_mutex_t }
%union.pthread_mutex_t = type { %struct.__pthread_mutex_s }
%struct.__pthread_mutex_s = type { i32, i32, i32, i32, i32, i16, i16, %struct.__pthread_internal_list }
%struct.__pthread_internal_list = type { ptr, ptr }

@check_vector = internal global %struct.check_vector zeroinitializer, align 8
@.str.19 = private unnamed_addr constant [27 x i8] c"size_t overflow: %lu * %lu\00", align 1

; Function Attrs: inlinehint nounwind uwtable
define internal void @vector_unlock() #5 {
  %1 = call i32 @pthread_mutex_unlock(ptr noundef getelementptr inbounds nuw (%struct.check_vector, ptr @check_vector, i32 0, i32 3)) #11
  ret void
}

; Function Attrs: inlinehint nounwind uwtable
define internal i64 @st_mult(i64 noundef %0, i64 noundef %1) #5 {
  %3 = alloca i64, align 8
  %4 = alloca i64, align 8
  store i64 %0, ptr %3, align 8, !tbaa !11
  store i64 %1, ptr %4, align 8, !tbaa !11
  %5 = load i64, ptr %3, align 8, !tbaa !11
  %6 = icmp ne i64 %5, 0
  br i1 %6, label %7, label %15

7:                                                ; preds = %2
  %8 = load i64, ptr %4, align 8, !tbaa !11
  %9 = load i64, ptr %3, align 8, !tbaa !11
  %10 = udiv i64 -1, %9
  %11 = icmp ugt i64 %8, %10
  br i1 %11, label %12, label %15

12:                                               ; preds = %7
  %13 = load i64, ptr %3, align 8, !tbaa !11
  %14 = load i64, ptr %4, align 8, !tbaa !11
  call void (ptr, ...) @die(ptr noundef @.str.19, i64 noundef %13, i64 noundef %14) #12
  unreachable

15:                                               ; preds = %7, %2
  %16 = load i64, ptr %3, align 8, !tbaa !11
  %17 = load i64, ptr %4, align 8, !tbaa !11
  %18 = mul i64 %16, %17
  ret i64 %18
}

; Function Attrs: inlinehint nounwind uwtable
define internal void @vector_lock() #5 {
  %1 = call i32 @pthread_mutex_lock(ptr noundef getelementptr inbounds nuw (%struct.check_vector, ptr @check_vector, i32 0, i32 3)) #11
  ret void
}

; Function Attrs: nounwind uwtable
define internal void @check_vector_add(ptr noundef %0) #0 {
  %2 = alloca ptr, align 8
  store ptr %0, ptr %2, align 8, !tbaa !32
  call void @vector_lock()
  br label %3

3:                                                ; preds = %1
  %4 = load i64, ptr @check_vector, align 8, !tbaa !34
  %5 = add i64 %4, 1
  %6 = load i64, ptr getelementptr inbounds nuw (%struct.check_vector, ptr @check_vector, i32 0, i32 1), align 8, !tbaa !37
  %7 = icmp ugt i64 %5, %6
  br i1 %7, label %8, label %29

8:                                                ; preds = %3
  %9 = load i64, ptr getelementptr inbounds nuw (%struct.check_vector, ptr @check_vector, i32 0, i32 1), align 8, !tbaa !37
  %10 = add i64 %9, 16
  %11 = mul i64 %10, 3
  %12 = udiv i64 %11, 2
  %13 = load i64, ptr @check_vector, align 8, !tbaa !34
  %14 = add i64 %13, 1
  %15 = icmp ult i64 %12, %14
  br i1 %15, label %16, label %19

16:                                               ; preds = %8
  %17 = load i64, ptr @check_vector, align 8, !tbaa !34
  %18 = add i64 %17, 1
  store i64 %18, ptr getelementptr inbounds nuw (%struct.check_vector, ptr @check_vector, i32 0, i32 1), align 8, !tbaa !37
  br label %24

19:                                               ; preds = %8
  %20 = load i64, ptr getelementptr inbounds nuw (%struct.check_vector, ptr @check_vector, i32 0, i32 1), align 8, !tbaa !37
  %21 = add i64 %20, 16
  %22 = mul i64 %21, 3
  %23 = udiv i64 %22, 2
  store i64 %23, ptr getelementptr inbounds nuw (%struct.check_vector, ptr @check_vector, i32 0, i32 1), align 8, !tbaa !37
  br label %24

24:                                               ; preds = %19, %16
  %25 = load ptr, ptr getelementptr inbounds nuw (%struct.check_vector, ptr @check_vector, i32 0, i32 2), align 8, !tbaa !38
  %26 = load i64, ptr getelementptr inbounds nuw (%struct.check_vector, ptr @check_vector, i32 0, i32 1), align 8, !tbaa !37
  %27 = call i64 @st_mult(i64 noundef 8, i64 noundef %26)
  %28 = call ptr @xrealloc(ptr noundef %25, i64 noundef %27)
  store ptr %28, ptr getelementptr inbounds nuw (%struct.check_vector, ptr @check_vector, i32 0, i32 2), align 8, !tbaa !38
  br label %29

29:                                               ; preds = %24, %3
  br label %30

30:                                               ; preds = %29
  %31 = load ptr, ptr %2, align 8, !tbaa !32
  %32 = load ptr, ptr getelementptr inbounds nuw (%struct.check_vector, ptr @check_vector, i32 0, i32 2), align 8, !tbaa !38
  %33 = load i64, ptr @check_vector, align 8, !tbaa !34
  %34 = add i64 %33, 1
  store i64 %34, ptr @check_vector, align 8, !tbaa !34
  %35 = getelementptr inbounds nuw ptr, ptr %32, i64 %33
  store ptr %31, ptr %35, align 8, !tbaa !32
  call void @vector_unlock()
  ret void
}

; Function Attrs: nounwind uwtable
define dso_local ptr @attr_check_alloc() #0 {
  %1 = alloca ptr, align 8
  call void @llvm.lifetime.start.p0(i64 8, ptr %1) #11
  %2 = call ptr @xcalloc(i64 noundef 1, i64 noundef 40)
  store ptr %2, ptr %1, align 8, !tbaa !32
  %3 = load ptr, ptr %1, align 8, !tbaa !32
  call void @check_vector_add(ptr noundef %3)
  %4 = load ptr, ptr %1, align 8, !tbaa !32
  call void @llvm.lifetime.end.p0(i64 8, ptr %1) #11
  ret ptr %4
}