; Function Attrs: nounwind uwtable
define dso_local ptr @attr_check_alloc() local_unnamed_addr #1 {
  %1 = tail call ptr @xcalloc(i64 noundef 1, i64 noundef 40) #21
  %2 = tail call i32 @pthread_mutex_lock(ptr noundef nonnull getelementptr inbounds nuw (i8, ptr @check_vector, i64 24)) #21
  %3 = load i64, ptr @check_vector, align 8, !tbaa !37
  %4 = add i64 %3, 1
  %5 = load i64, ptr getelementptr inbounds nuw (i8, ptr @check_vector, i64 8), align 8, !tbaa !40
  %6 = icmp ugt i64 %4, %5
  br i1 %6, label %7, label %._crit_edge.i

._crit_edge.i:                                    ; preds = %0
  %.pre.i = load ptr, ptr getelementptr inbounds nuw (i8, ptr @check_vector, i64 16), align 8, !tbaa !41
  br label %check_vector_add.exit

7:                                                ; preds = %0
  %8 = mul i64 %5, 3
  %9 = add i64 %8, 48
  %10 = lshr i64 %9, 1
  %..i = tail call i64 @llvm.umax.i64(i64 %10, i64 %4)
  store i64 %..i, ptr getelementptr inbounds nuw (i8, ptr @check_vector, i64 8), align 8, !tbaa !40
  %mul.ov.i.i = icmp ugt i64 %..i, 2305843009213693951
  br i1 %mul.ov.i.i, label %11, label %st_mult.exit.i

11:                                               ; preds = %7
  tail call void (ptr, ...) @die(ptr noundef nonnull @.str.19, i64 noundef 8, i64 noundef %..i) #22
  unreachable

st_mult.exit.i:                                   ; preds = %7
  %12 = load ptr, ptr getelementptr inbounds nuw (i8, ptr @check_vector, i64 16), align 8, !tbaa !41
  %13 = shl nuw i64 %..i, 3
  %14 = tail call ptr @xrealloc(ptr noundef %12, i64 noundef %13) #21
  store ptr %14, ptr getelementptr inbounds nuw (i8, ptr @check_vector, i64 16), align 8, !tbaa !41
  %.pre3.i = load i64, ptr @check_vector, align 8, !tbaa !37
  %.pre4.i = add i64 %.pre3.i, 1
  br label %check_vector_add.exit

check_vector_add.exit:                            ; preds = %._crit_edge.i, %st_mult.exit.i
  %.pre-phi.i = phi i64 [ %4, %._crit_edge.i ], [ %.pre4.i, %st_mult.exit.i ]
  %15 = phi i64 [ %3, %._crit_edge.i ], [ %.pre3.i, %st_mult.exit.i ]
  %16 = phi ptr [ %.pre.i, %._crit_edge.i ], [ %14, %st_mult.exit.i ]
  store i64 %.pre-phi.i, ptr @check_vector, align 8, !tbaa !37
  %17 = getelementptr inbounds nuw ptr, ptr %16, i64 %15
  store ptr %1, ptr %17, align 8, !tbaa !42
  %18 = tail call i32 @pthread_mutex_unlock(ptr noundef nonnull getelementptr inbounds nuw (i8, ptr @check_vector, i64 24)) #21
  ret ptr %1
}